target datalayout = "e-m:e-p270:32:32-p271:32:32-p272:64:64-i64:64-i128:128-f80:128-n8:16:32:64-S128"
target triple = "x86_64-pc-linux-gnu"

%struct.reassembly_table = type { ptr, ptr, ptr, ptr, ptr }
%struct._packet_info = type { ptr, ptr, i32, i32, %struct.nstime_t, %struct.nstime_t, %struct.nstime_t, i8, ptr, ptr, ptr, ptr, %struct._address, %struct._address, %struct._address, %struct._address, %struct._address, %struct._address, i32, ptr, i8, [3 x i8], %struct.anon, i32, i32, i32, i32, ptr, i8, ptr, ptr, i16, i16, i32, i32, i16, i32, i32, ptr, ptr, ptr, i8, i8, i16, i16, i16, i32, i16, i16, ptr, ptr, ptr, ptr, ptr, i32, i32 }
%struct.nstime_t = type { i64, i32 }
%struct._address = type { i32, i32, ptr, ptr }
%struct.anon = type { i8, [3 x i8] }
%struct._fragment_head = type { ptr, ptr, i32, i32, i32, i32, i32, i32, i32, i8, i32, ptr, ptr }

@hf_pn_rt_frag = internal global i32 0, align 4
@hf_pn_rt_frag_data_length = internal global i32 0, align 4
@hf_pn_rt_frag_status = internal global i32 0, align 4
@hf_pn_rt_frag_status_more_follows = internal global i32 0, align 4
@hf_pn_rt_frag_status_error = internal global i32 0, align 4
@hf_pn_rt_frag_status_fragment_number = internal global i32 0, align 4
@hf_pn_rt_frag_data = internal global i32 0, align 4
@ett_pn_rt_frag = internal global i32 0, align 4
@ett_pn_rt_frag_status = internal global i32 0, align 4
@pnio_desegment = internal global i8 1, align 1
@pdu_reassembly_table = internal global %struct.reassembly_table zeroinitializer, align 8
@ethertype_subdissector_table = internal global ptr null, align 8
@.str.100 = private unnamed_addr constant [8 x i8] c"Unknown\00", align 1
@pn_rt_frag_status_more_follows = internal constant [3 x { i32, [4 x i8], ptr }] [{ i32, [4 x i8], ptr } { i32 0, [4 x i8] zeroinitializer, ptr @.str.110 }, { i32, [4 x i8], ptr } { i32 1, [4 x i8] zeroinitializer, ptr @.str.111 }, { i32, [4 x i8], ptr } zeroinitializer], align 16
@start_frag_OR_ID = internal global [16 x i32] zeroinitializer, align 16
@reassembled_frag_table = internal global ptr null, align 8
@.str.186 = private unnamed_addr constant [17 x i8] c": Number: %u, %s\00", align 1
@.str.187 = private unnamed_addr constant [5 x i8] c"data\00", align 1
@.str.188 = private unnamed_addr constant [26 x i8] c"Fragment Length: %d bytes\00", align 1
@.str.189 = private unnamed_addr constant [27 x i8] c" Fragment Length: %d bytes\00", align 1
@.str.190 = private unnamed_addr constant [50 x i8] c": FragDataLength out of Framerange -> discarding!\00", align 1
@.str.191 = private unnamed_addr constant [27 x i8] c"Reassembled Profinet Frame\00", align 1

; Function Attrs: null_pointer_is_valid sspstrong uwtable
define internal zeroext i1 @dissect_FRAG_PDU_heur(ptr noundef %0, ptr noundef %1, ptr noundef %2, ptr noundef %3) #0 {
  %5 = alloca i1, align 1
  %6 = alloca ptr, align 8
  %7 = alloca ptr, align 8
  %8 = alloca ptr, align 8
  %9 = alloca ptr, align 8
  %10 = alloca i16, align 2
  %11 = alloca i32, align 4
  %12 = alloca ptr, align 8
  %13 = alloca ptr, align 8
  %14 = alloca ptr, align 8
  %15 = alloca ptr, align 8
  %16 = alloca i8, align 1
  %17 = alloca i8, align 1
  %18 = alloca i8, align 1
  %19 = alloca i8, align 1
  %20 = alloca i32, align 4
  %21 = alloca i32, align 4
  %22 = alloca i32, align 4
  %23 = alloca ptr, align 8
  %24 = alloca i32, align 4
  %25 = alloca i16, align 2
  %26 = alloca ptr, align 8
  store ptr %0, ptr %6, align 8
  store ptr %1, ptr %7, align 8
  store ptr %2, ptr %8, align 8
  store ptr %3, ptr %9, align 8
  call void @llvm.lifetime.start.p0(i64 2, ptr %10) #8
  %27 = load ptr, ptr %9, align 8
  %28 = ptrtoint ptr %27 to i64
  %29 = trunc i64 %28 to i32
  %30 = trunc i32 %29 to i16
  store i16 %30, ptr %10, align 2
  call void @llvm.lifetime.start.p0(i64 4, ptr %11) #8
  store i32 0, ptr %11, align 4
  %31 = load i16, ptr %10, align 2
  %32 = zext i16 %31 to i32
  %33 = icmp sge i32 %32, 65408
  br i1 %33, label %34, label %242

34:                                               ; preds = %4
  %35 = load i16, ptr %10, align 2
  %36 = zext i16 %35 to i32
  %37 = icmp sle i32 %36, 65423
  br i1 %37, label %38, label %242

38:                                               ; preds = %34
  call void @llvm.lifetime.start.p0(i64 8, ptr %12) #8
  call void @llvm.lifetime.start.p0(i64 8, ptr %13) #8
  call void @llvm.lifetime.start.p0(i64 8, ptr %14) #8
  call void @llvm.lifetime.start.p0(i64 8, ptr %15) #8
  call void @llvm.lifetime.start.p0(i64 1, ptr %16) #8
  call void @llvm.lifetime.start.p0(i64 1, ptr %17) #8
  call void @llvm.lifetime.start.p0(i64 1, ptr %18) #8
  call void @llvm.lifetime.start.p0(i64 1, ptr %19) #8
  %39 = load ptr, ptr %8, align 8
  %40 = load i32, ptr @hf_pn_rt_frag, align 4
  %41 = load ptr, ptr %6, align 8
  %42 = load i32, ptr %11, align 4
  %43 = call ptr @proto_tree_add_item(ptr noundef %39, i32 noundef %40, ptr noundef %41, i32 noundef %42, i32 noundef 0, i32 noundef 0)
  store ptr %43, ptr %12, align 8
  %44 = load ptr, ptr %12, align 8
  %45 = load i32, ptr @ett_pn_rt_frag, align 4
  %46 = call ptr @proto_item_add_subtree(ptr noundef %44, i32 noundef %45)
  store ptr %46, ptr %13, align 8
  %47 = load ptr, ptr %6, align 8
  %48 = load i32, ptr %11, align 4
  %49 = call zeroext i8 @tvb_get_uint8(ptr noundef %47, i32 noundef %48)
  store i8 %49, ptr %16, align 1
  %50 = load ptr, ptr %13, align 8
  %51 = load i32, ptr @hf_pn_rt_frag_data_length, align 4
  %52 = load ptr, ptr %6, align 8
  %53 = load i32, ptr %11, align 4
  %54 = load i8, ptr %16, align 1
  %55 = zext i8 %54 to i32
  %56 = call ptr @proto_tree_add_uint(ptr noundef %50, i32 noundef %51, ptr noundef %52, i32 noundef %53, i32 noundef 1, i32 noundef %55)
  %57 = load i32, ptr %11, align 4
  %58 = add i32 %57, 1
  store i32 %58, ptr %11, align 4
  %59 = load ptr, ptr %13, align 8
  %60 = load i32, ptr @hf_pn_rt_frag_status, align 4
  %61 = load ptr, ptr %6, align 8
  %62 = load i32, ptr %11, align 4
  %63 = call ptr @proto_tree_add_item(ptr noundef %59, i32 noundef %60, ptr noundef %61, i32 noundef %62, i32 noundef 1, i32 noundef 0)
  store ptr %63, ptr %14, align 8
  %64 = load ptr, ptr %14, align 8
  %65 = load i32, ptr @ett_pn_rt_frag_status, align 4
  %66 = call ptr @proto_item_add_subtree(ptr noundef %64, i32 noundef %65)
  store ptr %66, ptr %15, align 8
  %67 = load ptr, ptr %6, align 8
  %68 = load i32, ptr %11, align 4
  %69 = call zeroext i8 @tvb_get_uint8(ptr noundef %67, i32 noundef %68)
  store i8 %69, ptr %17, align 1
  %70 = load ptr, ptr %15, align 8
  %71 = load i32, ptr @hf_pn_rt_frag_status_more_follows, align 4
  %72 = load ptr, ptr %6, align 8
  %73 = load i32, ptr %11, align 4
  %74 = load i8, ptr %17, align 1
  %75 = zext i8 %74 to i32
  %76 = call ptr @proto_tree_add_uint(ptr noundef %70, i32 noundef %71, ptr noundef %72, i32 noundef %73, i32 noundef 1, i32 noundef %75)
  %77 = load ptr, ptr %15, align 8
  %78 = load i32, ptr @hf_pn_rt_frag_status_error, align 4
  %79 = load ptr, ptr %6, align 8
  %80 = load i32, ptr %11, align 4
  %81 = load i8, ptr %17, align 1
  %82 = zext i8 %81 to i32
  %83 = call ptr @proto_tree_add_uint(ptr noundef %77, i32 noundef %78, ptr noundef %79, i32 noundef %80, i32 noundef 1, i32 noundef %82)
  %84 = load ptr, ptr %15, align 8
  %85 = load i32, ptr @hf_pn_rt_frag_status_fragment_number, align 4
  %86 = load ptr, ptr %6, align 8
  %87 = load i32, ptr %11, align 4
  %88 = load i8, ptr %17, align 1
  %89 = zext i8 %88 to i32
  %90 = call ptr @proto_tree_add_uint(ptr noundef %84, i32 noundef %85, ptr noundef %86, i32 noundef %87, i32 noundef 1, i32 noundef %89)
  %91 = load i32, ptr %11, align 4
  %92 = add i32 %91, 1
  store i32 %92, ptr %11, align 4
  %93 = load i8, ptr %17, align 1
  %94 = zext i8 %93 to i32
  %95 = and i32 %94, 63
  %96 = trunc i32 %95 to i8
  store i8 %96, ptr %19, align 1
  %97 = load i8, ptr %17, align 1
  %98 = zext i8 %97 to i32
  %99 = and i32 %98, 128
  %100 = icmp ne i32 %99, 0
  %101 = zext i1 %100 to i8
  store i8 %101, ptr %18, align 1
  %102 = load ptr, ptr %14, align 8
  %103 = load i8, ptr %19, align 1
  %104 = zext i8 %103 to i32
  %105 = load i8, ptr %17, align 1
  %106 = zext i8 %105 to i32
  %107 = and i32 %106, 128
  %108 = ashr i32 %107, 7
  %109 = call ptr @val_to_str_const(i32 noundef %108, ptr noundef @pn_rt_frag_status_more_follows, ptr noundef @.str.100)
  call void (ptr, ptr, ...) @proto_item_append_text(ptr noundef %102, ptr noundef @.str.186, i32 noundef %104, ptr noundef %109)
  %110 = load ptr, ptr %13, align 8
  %111 = load i32, ptr @hf_pn_rt_frag_data, align 4
  %112 = load ptr, ptr %6, align 8
  %113 = load i32, ptr %11, align 4
  %114 = load ptr, ptr %6, align 8
  %115 = load i32, ptr %11, align 4
  %116 = call i32 @tvb_captured_length_remaining(ptr noundef %114, i32 noundef %115)
  %117 = load ptr, ptr %6, align 8
  %118 = load i32, ptr %11, align 4
  %119 = call i32 @tvb_captured_length_remaining(ptr noundef %117, i32 noundef %118)
  %120 = call ptr (ptr, i32, ptr, i32, i32, ptr, ptr, ...) @proto_tree_add_string_format(ptr noundef %110, i32 noundef %111, ptr noundef %112, i32 noundef %113, i32 noundef %116, ptr noundef @.str.187, ptr noundef @.str.188, i32 noundef %119)
  %121 = load ptr, ptr %7, align 8
  %122 = getelementptr inbounds nuw %struct._packet_info, ptr %121, i32 0, i32 1
  %123 = load ptr, ptr %122, align 8
  %124 = load ptr, ptr %6, align 8
  %125 = load i32, ptr %11, align 4
  %126 = call i32 @tvb_captured_length_remaining(ptr noundef %124, i32 noundef %125)
  call void (ptr, i32, ptr, ...) @col_append_fstr(ptr noundef %123, i32 noundef 25, ptr noundef @.str.189, i32 noundef %126)
  %127 = load ptr, ptr %6, align 8
  %128 = load i32, ptr %11, align 4
  %129 = load ptr, ptr %7, align 8
  %130 = load ptr, ptr %13, align 8
  %131 = load ptr, ptr %6, align 8
  %132 = load i32, ptr %11, align 4
  %133 = call i32 @tvb_captured_length_remaining(ptr noundef %131, i32 noundef %132)
  %134 = call i32 @dissect_pn_user_data_bytes(ptr noundef %127, i32 noundef %128, ptr noundef %129, ptr noundef %130, i32 noundef %133, i32 noundef 2)
  %135 = load ptr, ptr %6, align 8
  %136 = load i32, ptr %11, align 4
  %137 = call i32 @tvb_captured_length_remaining(ptr noundef %135, i32 noundef %136)
  %138 = load i8, ptr %16, align 1
  %139 = zext i8 %138 to i32
  %140 = mul i32 %139, 8
  %141 = icmp ult i32 %137, %140
  br i1 %141, label %142, label %144

142:                                              ; preds = %38
  %143 = load ptr, ptr %14, align 8
  call void (ptr, ptr, ...) @proto_item_append_text(ptr noundef %143, ptr noundef @.str.190)
  store i1 true, ptr %5, align 1
  store i32 1, ptr %20, align 4
  br label %241

144:                                              ; preds = %38
  %145 = load i8, ptr @pnio_desegment, align 1, !range !6, !noundef !7
  %146 = trunc i8 %145 to i1
  br i1 %146, label %147, label %240

147:                                              ; preds = %144
  call void @llvm.lifetime.start.p0(i64 4, ptr %21) #8
  call void @llvm.lifetime.start.p0(i64 4, ptr %22) #8
  call void @llvm.lifetime.start.p0(i64 8, ptr %23) #8
  %148 = load i16, ptr %10, align 2
  %149 = zext i16 %148 to i32
  %150 = and i32 %149, 15
  store i32 %150, ptr %21, align 4
  %151 = load i8, ptr %19, align 1
  %152 = zext i8 %151 to i32
  %153 = icmp eq i32 %152, 0
  br i1 %153, label %154, label %165

154:                                              ; preds = %147
  call void @llvm.lifetime.start.p0(i64 4, ptr %24) #8
  %155 = load ptr, ptr %7, align 8
  %156 = getelementptr inbounds nuw %struct._packet_info, ptr %155, i32 0, i32 3
  %157 = load i32, ptr %156, align 4
  %158 = shl i32 %157, 2
  %159 = load i32, ptr %21, align 4
  %160 = or i32 %158, %159
  store i32 %160, ptr %24, align 4
  %161 = load i32, ptr %24, align 4
  %162 = load i32, ptr %21, align 4
  %163 = zext i32 %162 to i64
  %164 = getelementptr [16 x i32], ptr @start_frag_OR_ID, i64 0, i64 %163
  store i32 %161, ptr %164, align 4
  call void @llvm.lifetime.end.p0(i64 4, ptr %24) #8
  br label %165

165:                                              ; preds = %154, %147
  %166 = load i32, ptr %21, align 4
  %167 = zext i32 %166 to i64
  %168 = getelementptr [16 x i32], ptr @start_frag_OR_ID, i64 0, i64 %167
  %169 = load i32, ptr %168, align 4
  store i32 %169, ptr %22, align 4
  %170 = load ptr, ptr %6, align 8
  %171 = load i32, ptr %11, align 4
  %172 = load ptr, ptr %7, align 8
  %173 = load i32, ptr %22, align 4
  %174 = load i8, ptr %19, align 1
  %175 = zext i8 %174 to i32
  %176 = load ptr, ptr %6, align 8
  %177 = load i32, ptr %11, align 4
  %178 = call i32 @tvb_captured_length_remaining(ptr noundef %176, i32 noundef %177)
  %179 = load i8, ptr %18, align 1, !range !6, !noundef !7
  %180 = trunc i8 %179 to i1
  %181 = call ptr @fragment_add_seq(ptr noundef @pdu_reassembly_table, ptr noundef %170, i32 noundef %171, ptr noundef %172, i32 noundef %173, ptr noundef null, i32 noundef %175, i32 noundef %178, i1 noundef zeroext %180, i32 noundef 0)
  store ptr %181, ptr %23, align 8
  %182 = load ptr, ptr %23, align 8
  %183 = icmp ne ptr %182, null
  br i1 %183, label %184, label %199

184:                                              ; preds = %165
  %185 = load i8, ptr %18, align 1, !range !6, !noundef !7
  %186 = trunc i8 %185 to i1
  br i1 %186, label %199, label %187

187:                                              ; preds = %184
  %188 = load ptr, ptr @reassembled_frag_table, align 8
  %189 = load ptr, ptr %7, align 8
  %190 = getelementptr inbounds nuw %struct._packet_info, ptr %189, i32 0, i32 3
  %191 = load i32, ptr %190, align 4
  %192 = zext i32 %191 to i64
  %193 = inttoptr i64 %192 to ptr
  %194 = load ptr, ptr %23, align 8
  %195 = call i32 @g_hash_table_insert(ptr noundef %188, ptr noundef %193, ptr noundef %194)
  %196 = load i32, ptr %21, align 4
  %197 = zext i32 %196 to i64
  %198 = getelementptr [16 x i32], ptr @start_frag_OR_ID, i64 0, i64 %197
  store i32 0, ptr %198, align 4
  br label %199

199:                                              ; preds = %187, %184, %165
  %200 = load i8, ptr %18, align 1, !range !6, !noundef !7
  %201 = trunc i8 %200 to i1
  br i1 %201, label %239, label %202

202:                                              ; preds = %199
  %203 = load ptr, ptr @reassembled_frag_table, align 8
  %204 = load ptr, ptr %7, align 8
  %205 = getelementptr inbounds nuw %struct._packet_info, ptr %204, i32 0, i32 3
  %206 = load i32, ptr %205, align 4
  %207 = zext i32 %206 to i64
  %208 = inttoptr i64 %207 to ptr
  %209 = call ptr @g_hash_table_lookup(ptr noundef %203, ptr noundef %208)
  store ptr %209, ptr %23, align 8
  %210 = load ptr, ptr %23, align 8
  %211 = icmp ne ptr %210, null
  br i1 %211, label %212, label %238

212:                                              ; preds = %202
  call void @llvm.lifetime.start.p0(i64 2, ptr %25) #8
  call void @llvm.lifetime.start.p0(i64 8, ptr %26) #8
  %213 = load ptr, ptr %6, align 8
  %214 = load ptr, ptr %23, align 8
  %215 = getelementptr inbounds nuw %struct._fragment_head, ptr %214, i32 0, i32 11
  %216 = load ptr, ptr %215, align 8
  %217 = call ptr @tvb_new_chain(ptr noundef %213, ptr noundef %216)
  store ptr %217, ptr %26, align 8
  %218 = load ptr, ptr %7, align 8
  %219 = load ptr, ptr %26, align 8
  call void @add_new_data_source(ptr noundef %218, ptr noundef %219, ptr noundef @.str.191)
  %220 = load ptr, ptr %26, align 8
  %221 = call zeroext i16 @tvb_get_ntohs(ptr noundef %220, i32 noundef 0)
  store i16 %221, ptr %25, align 2
  %222 = load ptr, ptr %26, align 8
  %223 = call ptr @tvb_new_subset_remaining(ptr noundef %222, i32 noundef 2)
  store ptr %223, ptr %26, align 8
  %224 = load ptr, ptr @ethertype_subdissector_table, align 8
  %225 = load i16, ptr %25, align 2
  %226 = zext i16 %225 to i32
  %227 = load ptr, ptr %26, align 8
  %228 = load ptr, ptr %7, align 8
  %229 = load ptr, ptr %8, align 8
  %230 = call i32 @dissector_try_uint(ptr noundef %224, i32 noundef %226, ptr noundef %227, ptr noundef %228, ptr noundef %229)
  %231 = icmp ne i32 %230, 0
  br i1 %231, label %237, label %232

232:                                              ; preds = %212
  %233 = load ptr, ptr %26, align 8
  %234 = load ptr, ptr %7, align 8
  %235 = load ptr, ptr %8, align 8
  %236 = call i32 @call_data_dissector(ptr noundef %233, ptr noundef %234, ptr noundef %235)
  br label %237

237:                                              ; preds = %232, %212
  call void @llvm.lifetime.end.p0(i64 8, ptr %26) #8
  call void @llvm.lifetime.end.p0(i64 2, ptr %25) #8
  br label %238

238:                                              ; preds = %237, %202
  br label %239

239:                                              ; preds = %238, %199
  store i1 true, ptr %5, align 1
  store i32 1, ptr %20, align 4
  call void @llvm.lifetime.end.p0(i64 8, ptr %23) #8
  call void @llvm.lifetime.end.p0(i64 4, ptr %22) #8
  call void @llvm.lifetime.end.p0(i64 4, ptr %21) #8
  br label %241

240:                                              ; preds = %144
  store i1 true, ptr %5, align 1
  store i32 1, ptr %20, align 4
  br label %241

241:                                              ; preds = %240, %239, %142
  call void @llvm.lifetime.end.p0(i64 1, ptr %19) #8
  call void @llvm.lifetime.end.p0(i64 1, ptr %18) #8
  call void @llvm.lifetime.end.p0(i64 1, ptr %17) #8
  call void @llvm.lifetime.end.p0(i64 1, ptr %16) #8
  call void @llvm.lifetime.end.p0(i64 8, ptr %15) #8
  call void @llvm.lifetime.end.p0(i64 8, ptr %14) #8
  call void @llvm.lifetime.end.p0(i64 8, ptr %13) #8
  call void @llvm.lifetime.end.p0(i64 8, ptr %12) #8
  br label %243

242:                                              ; preds = %34, %4
  store i1 false, ptr %5, align 1
  store i32 1, ptr %20, align 4
  br label %243

243:                                              ; preds = %242, %241
  call void @llvm.lifetime.end.p0(i64 4, ptr %11) #8
  call void @llvm.lifetime.end.p0(i64 2, ptr %10) #8
  %244 = load i1, ptr %5, align 1
  ret i1 %244
}