; Function Attrs: null_pointer_is_valid sspstrong uwtable
define internal noundef zeroext i1 @dissect_FRAG_PDU_heur(ptr noundef %0, ptr noundef %1, ptr noundef %2, ptr noundef %3) #0 {
  %5 = ptrtoint ptr %3 to i64
  %6 = trunc i64 %5 to i32
  %7 = and i32 %6, 65520
  %or.cond = icmp eq i32 %7, 65408
  br i1 %or.cond, label %8, label %90

8:                                                ; preds = %4
  %9 = load i32, ptr @hf_pn_rt_frag, align 4
  %10 = tail call ptr @proto_tree_add_item(ptr noundef %2, i32 noundef %9, ptr noundef %0, i32 noundef 0, i32 noundef 0, i32 noundef 0)
  %11 = load i32, ptr @ett_pn_rt_frag, align 4
  %12 = tail call ptr @proto_item_add_subtree(ptr noundef %10, i32 noundef %11)
  %13 = tail call zeroext i8 @tvb_get_uint8(ptr noundef %0, i32 noundef 0)
  %14 = load i32, ptr @hf_pn_rt_frag_data_length, align 4
  %15 = zext i8 %13 to i32
  %16 = tail call ptr @proto_tree_add_uint(ptr noundef %12, i32 noundef %14, ptr noundef %0, i32 noundef 0, i32 noundef 1, i32 noundef %15)
  %17 = load i32, ptr @hf_pn_rt_frag_status, align 4
  %18 = tail call ptr @proto_tree_add_item(ptr noundef %12, i32 noundef %17, ptr noundef %0, i32 noundef 1, i32 noundef 1, i32 noundef 0)
  %19 = load i32, ptr @ett_pn_rt_frag_status, align 4
  %20 = tail call ptr @proto_item_add_subtree(ptr noundef %18, i32 noundef %19)
  %21 = tail call zeroext i8 @tvb_get_uint8(ptr noundef %0, i32 noundef 1)
  %22 = load i32, ptr @hf_pn_rt_frag_status_more_follows, align 4
  %23 = zext i8 %21 to i32
  %24 = tail call ptr @proto_tree_add_uint(ptr noundef %20, i32 noundef %22, ptr noundef %0, i32 noundef 1, i32 noundef 1, i32 noundef %23)
  %25 = load i32, ptr @hf_pn_rt_frag_status_error, align 4
  %26 = tail call ptr @proto_tree_add_uint(ptr noundef %20, i32 noundef %25, ptr noundef %0, i32 noundef 1, i32 noundef 1, i32 noundef %23)
  %27 = load i32, ptr @hf_pn_rt_frag_status_fragment_number, align 4
  %28 = tail call ptr @proto_tree_add_uint(ptr noundef %20, i32 noundef %27, ptr noundef %0, i32 noundef 1, i32 noundef 1, i32 noundef %23)
  %29 = and i8 %21, 63
  %30 = icmp slt i8 %21, 0
  %31 = zext nneg i8 %29 to i32
  %32 = lshr i32 %23, 7
  %33 = tail call ptr @val_to_str_const(i32 noundef %32, ptr noundef nonnull @pn_rt_frag_status_more_follows, ptr noundef nonnull @.str.100)
  tail call void (ptr, ptr, ...) @proto_item_append_text(ptr noundef %18, ptr noundef nonnull @.str.186, i32 noundef %31, ptr noundef %33)
  %34 = load i32, ptr @hf_pn_rt_frag_data, align 4
  %35 = tail call i32 @tvb_captured_length_remaining(ptr noundef %0, i32 noundef 2)
  %36 = tail call i32 @tvb_captured_length_remaining(ptr noundef %0, i32 noundef 2)
  %37 = tail call ptr (ptr, i32, ptr, i32, i32, ptr, ptr, ...) @proto_tree_add_string_format(ptr noundef %12, i32 noundef %34, ptr noundef %0, i32 noundef 2, i32 noundef %35, ptr noundef nonnull @.str.187, ptr noundef nonnull @.str.188, i32 noundef %36)
  %38 = getelementptr inbounds nuw i8, ptr %1, i64 8
  %39 = load ptr, ptr %38, align 8
  %40 = tail call i32 @tvb_captured_length_remaining(ptr noundef %0, i32 noundef 2)
  tail call void (ptr, i32, ptr, ...) @col_append_fstr(ptr noundef %39, i32 noundef 25, ptr noundef nonnull @.str.189, i32 noundef %40)
  %41 = tail call i32 @tvb_captured_length_remaining(ptr noundef %0, i32 noundef 2)
  %42 = tail call i32 @dissect_pn_user_data_bytes(ptr noundef %0, i32 noundef 2, ptr noundef %1, ptr noundef %12, i32 noundef %41, i32 noundef 2)
  %43 = tail call i32 @tvb_captured_length_remaining(ptr noundef %0, i32 noundef 2)
  %44 = shl nuw nsw i32 %15, 3
  %45 = icmp ult i32 %43, %44
  br i1 %45, label %46, label %47

46:                                               ; preds = %8
  tail call void (ptr, ptr, ...) @proto_item_append_text(ptr noundef %18, ptr noundef nonnull @.str.190)
  br label %90

47:                                               ; preds = %8
  %48 = load i8, ptr @pnio_desegment, align 1, !range !6, !noundef !7
  %49 = trunc nuw i8 %48 to i1
  br i1 %49, label %50, label %90

50:                                               ; preds = %47
  %51 = icmp eq i8 %29, 0
  br i1 %51, label %52, label %._crit_edge

._crit_edge:                                      ; preds = %50
  %.pre = and i64 %5, 15
  br label %60

52:                                               ; preds = %50
  %53 = and i32 %6, 15
  %54 = getelementptr inbounds nuw i8, ptr %1, i64 20
  %55 = load i32, ptr %54, align 4
  %56 = shl i32 %55, 2
  %57 = or i32 %56, %53
  %58 = and i64 %5, 15
  %59 = getelementptr [16 x i32], ptr @start_frag_OR_ID, i64 0, i64 %58
  store i32 %57, ptr %59, align 4
  br label %60

60:                                               ; preds = %._crit_edge, %52
  %.pre-phi = phi i64 [ %.pre, %._crit_edge ], [ %58, %52 ]
  %61 = getelementptr [16 x i32], ptr @start_frag_OR_ID, i64 0, i64 %.pre-phi
  %62 = load i32, ptr %61, align 4
  %63 = tail call i32 @tvb_captured_length_remaining(ptr noundef %0, i32 noundef 2)
  %64 = tail call ptr @fragment_add_seq(ptr noundef nonnull @pdu_reassembly_table, ptr noundef %0, i32 noundef 2, ptr noundef %1, i32 noundef %62, ptr noundef null, i32 noundef %31, i32 noundef %63, i1 noundef zeroext %30, i32 noundef 0)
  %.not = icmp eq ptr %64, null
  %brmerge = or i1 %30, %.not
  br i1 %brmerge, label %71, label %.thread

.thread:                                          ; preds = %60
  %65 = load ptr, ptr @reassembled_frag_table, align 8
  %66 = getelementptr inbounds nuw i8, ptr %1, i64 20
  %67 = load i32, ptr %66, align 4
  %68 = zext i32 %67 to i64
  %69 = inttoptr i64 %68 to ptr
  %70 = tail call i32 @g_hash_table_insert(ptr noundef %65, ptr noundef %69, ptr noundef nonnull %64)
  store i32 0, ptr %61, align 4
  br label %72

71:                                               ; preds = %60
  br i1 %30, label %90, label %72

72:                                               ; preds = %.thread, %71
  %73 = load ptr, ptr @reassembled_frag_table, align 8
  %74 = getelementptr inbounds nuw i8, ptr %1, i64 20
  %75 = load i32, ptr %74, align 4
  %76 = zext i32 %75 to i64
  %77 = inttoptr i64 %76 to ptr
  %78 = tail call ptr @g_hash_table_lookup(ptr noundef %73, ptr noundef %77)
  %.not98 = icmp eq ptr %78, null
  br i1 %.not98, label %90, label %79

79:                                               ; preds = %72
  %80 = getelementptr inbounds nuw i8, ptr %78, i64 56
  %81 = load ptr, ptr %80, align 8
  %82 = tail call ptr @tvb_new_chain(ptr noundef %0, ptr noundef %81)
  tail call void @add_new_data_source(ptr noundef %1, ptr noundef %82, ptr noundef nonnull @.str.191)
  %83 = tail call zeroext i16 @tvb_get_ntohs(ptr noundef %82, i32 noundef 0)
  %84 = tail call ptr @tvb_new_subset_remaining(ptr noundef %82, i32 noundef 2)
  %85 = load ptr, ptr @ethertype_subdissector_table, align 8
  %86 = zext i16 %83 to i32
  %87 = tail call i32 @dissector_try_uint(ptr noundef %85, i32 noundef %86, ptr noundef %84, ptr noundef %1, ptr noundef %2)
  %.not99 = icmp eq i32 %87, 0
  br i1 %.not99, label %88, label %90

88:                                               ; preds = %79
  %89 = tail call i32 @call_data_dissector(ptr noundef %84, ptr noundef %1, ptr noundef %2)
  br label %90

90:                                               ; preds = %4, %46, %79, %88, %72, %71, %47
  ret i1 %or.cond
}